; Function Attrs: mustprogress nofree norecurse nosync nounwind willreturn memory(read, inaccessiblemem: none) uwtable
define noundef zeroext i1 @_ZNK3gmx21SimulationInputHandlecvbEv(ptr nocapture noundef nonnull readonly align 8 dereferenceable(8) %0) local_unnamed_addr #6 align 2 {
  %2 = load ptr, ptr %0, align 8
  %.not = icmp eq ptr %2, null
  br i1 %.not, label %6, label %3

3:                                                ; preds = %1
  %4 = load ptr, ptr %2, align 8
  %5 = icmp ne ptr %4, null
  br label %6

6:                                                ; preds = %1, %3
  %.0 = phi i1 [ %5, %3 ], [ false, %1 ]
  ret i1 %.0
}